target datalayout = "e-m:e-p270:32:32-p271:32:32-p272:64:64-i64:64-i128:128-f80:128-n8:16:32:64-S128"
target triple = "x86_64-pc-linux-gnu"

%"class.std::deque" = type { %"class.std::_Deque_base" }
%"class.std::_Deque_base" = type { %"struct.std::_Deque_base<std::__cxx11::basic_string<char>, std::allocator<std::__cxx11::basic_string<char>>>::_Deque_impl" }
%"struct.std::_Deque_base<std::__cxx11::basic_string<char>, std::allocator<std::__cxx11::basic_string<char>>>::_Deque_impl" = type { %"struct.std::_Deque_base<std::__cxx11::basic_string<char>, std::allocator<std::__cxx11::basic_string<char>>>::_Deque_impl_data" }
%"struct.std::_Deque_base<std::__cxx11::basic_string<char>, std::allocator<std::__cxx11::basic_string<char>>>::_Deque_impl_data" = type { ptr, i64, %"struct.std::_Deque_iterator", %"struct.std::_Deque_iterator" }
%"struct.std::_Deque_iterator" = type { ptr, ptr, ptr, ptr }
%class.FileLine = type { i16, i16, i32, i32, i32, i32, i32, ptr, ptr }
%class.VFileContent = type { i32, %"struct.std::atomic", %"class.std::deque" }
%"struct.std::atomic" = type { %"struct.std::__atomic_base" }
%"struct.std::__atomic_base" = type { i64 }

@_ZZN8FileLine18copyOrSameFileLineEvE8lastNewp = internal global ptr null, align 8

; Function Attrs: mustprogress nounwind uwtable
define linkonce_odr dso_local noundef i64 @_ZNSt13__atomic_baseImEppEv(ptr noundef nonnull align 8 dereferenceable(8) %0) #5 comdat align 2 {
  %2 = alloca ptr, align 8
  %3 = alloca i64, align 8
  %4 = alloca i64, align 8
  store ptr %0, ptr %2, align 8
  %5 = load ptr, ptr %2, align 8
  %6 = getelementptr inbounds %"struct.std::__atomic_base", ptr %5, i32 0, i32 0
  store i64 1, ptr %3, align 8
  %7 = load i64, ptr %3, align 8
  %8 = atomicrmw add ptr %6, i64 %7 seq_cst, align 8
  %9 = add i64 %8, %7
  store i64 %9, ptr %4, align 8
  %10 = load i64, ptr %4, align 8
  ret i64 %10
}

; Function Attrs: mustprogress nounwind uwtable
define linkonce_odr dso_local void @_ZN12VFileContent6refIncEv(ptr noundef nonnull align 8 dereferenceable(96) %0) #5 comdat align 2 {
  %2 = alloca ptr, align 8
  store ptr %0, ptr %2, align 8
  %3 = load ptr, ptr %2, align 8
  %4 = getelementptr inbounds %class.VFileContent, ptr %3, i32 0, i32 1
  %5 = call noundef i64 @_ZNSt13__atomic_baseImEppEv(ptr noundef nonnull align 8 dereferenceable(8) %4) #3
  ret void
}

; Function Attrs: mustprogress nounwind uwtable
define linkonce_odr dso_local void @_ZN8FileLineC2EPS_(ptr noundef nonnull align 8 dereferenceable(40) %0, ptr noundef %1) unnamed_addr #5 comdat align 2 {
  %3 = alloca ptr, align 8
  %4 = alloca ptr, align 8
  store ptr %0, ptr %3, align 8
  store ptr %1, ptr %4, align 8
  %5 = load ptr, ptr %3, align 8
  %6 = getelementptr inbounds %class.FileLine, ptr %5, i32 0, i32 0
  %7 = load ptr, ptr %4, align 8
  %8 = getelementptr inbounds %class.FileLine, ptr %7, i32 0, i32 0
  %9 = load i16, ptr %8, align 8
  store i16 %9, ptr %6, align 8
  %10 = getelementptr inbounds %class.FileLine, ptr %5, i32 0, i32 1
  %11 = load ptr, ptr %4, align 8
  %12 = getelementptr inbounds %class.FileLine, ptr %11, i32 0, i32 1
  %13 = load i16, ptr %12, align 2
  store i16 %13, ptr %10, align 2
  %14 = getelementptr inbounds %class.FileLine, ptr %5, i32 0, i32 2
  %15 = load ptr, ptr %4, align 8
  %16 = getelementptr inbounds %class.FileLine, ptr %15, i32 0, i32 2
  %17 = load i32, ptr %16, align 4
  %18 = and i32 %17, 1
  %19 = trunc i32 %18 to i1
  %20 = zext i1 %19 to i32
  %21 = load i32, ptr %14, align 4
  %22 = and i32 %21, -2
  %23 = or i32 %22, %20
  store i32 %23, ptr %14, align 4
  %24 = getelementptr inbounds %class.FileLine, ptr %5, i32 0, i32 2
  %25 = load ptr, ptr %4, align 8
  %26 = getelementptr inbounds %class.FileLine, ptr %25, i32 0, i32 2
  %27 = load i32, ptr %26, align 4
  %28 = lshr i32 %27, 1
  %29 = load i32, ptr %24, align 4
  %30 = and i32 %28, 2147483647
  %31 = shl i32 %30, 1
  %32 = and i32 %29, 1
  %33 = or i32 %32, %31
  store i32 %33, ptr %24, align 4
  %34 = getelementptr inbounds %class.FileLine, ptr %5, i32 0, i32 3
  %35 = load ptr, ptr %4, align 8
  %36 = getelementptr inbounds %class.FileLine, ptr %35, i32 0, i32 3
  %37 = load i32, ptr %36, align 8
  store i32 %37, ptr %34, align 8
  %38 = getelementptr inbounds %class.FileLine, ptr %5, i32 0, i32 4
  %39 = load ptr, ptr %4, align 8
  %40 = getelementptr inbounds %class.FileLine, ptr %39, i32 0, i32 4
  %41 = load i32, ptr %40, align 4
  store i32 %41, ptr %38, align 4
  %42 = getelementptr inbounds %class.FileLine, ptr %5, i32 0, i32 5
  %43 = load ptr, ptr %4, align 8
  %44 = getelementptr inbounds %class.FileLine, ptr %43, i32 0, i32 5
  %45 = load i32, ptr %44, align 8
  store i32 %45, ptr %42, align 8
  %46 = getelementptr inbounds %class.FileLine, ptr %5, i32 0, i32 6
  %47 = load ptr, ptr %4, align 8
  %48 = getelementptr inbounds %class.FileLine, ptr %47, i32 0, i32 6
  %49 = load i32, ptr %48, align 4
  store i32 %49, ptr %46, align 4
  %50 = getelementptr inbounds %class.FileLine, ptr %5, i32 0, i32 7
  %51 = load ptr, ptr %4, align 8
  %52 = getelementptr inbounds %class.FileLine, ptr %51, i32 0, i32 7
  %53 = load ptr, ptr %52, align 8
  store ptr %53, ptr %50, align 8
  %54 = getelementptr inbounds %class.FileLine, ptr %5, i32 0, i32 8
  %55 = load ptr, ptr %4, align 8
  %56 = getelementptr inbounds %class.FileLine, ptr %55, i32 0, i32 8
  %57 = load ptr, ptr %56, align 8
  store ptr %57, ptr %54, align 8
  %58 = getelementptr inbounds %class.FileLine, ptr %5, i32 0, i32 7
  %59 = load ptr, ptr %58, align 8
  %60 = icmp ne ptr %59, null
  br i1 %60, label %61, label %64

61:                                               ; preds = %2
  %62 = getelementptr inbounds %class.FileLine, ptr %5, i32 0, i32 7
  %63 = load ptr, ptr %62, align 8
  call void @_ZN12VFileContent6refIncEv(ptr noundef nonnull align 8 dereferenceable(96) %63)
  br label %64

64:                                               ; preds = %61, %2
  ret void
}

; Function Attrs: mustprogress nounwind uwtable
define linkonce_odr dso_local noundef zeroext i1 @_ZNK8FileLineeqERKS_(ptr noundef nonnull align 8 dereferenceable(40) %0, ptr noundef nonnull align 8 dereferenceable(40) %1) #5 comdat align 2 {
  %3 = alloca ptr, align 8
  %4 = alloca ptr, align 8
  store ptr %0, ptr %3, align 8
  store ptr %1, ptr %4, align 8
  %5 = load ptr, ptr %3, align 8
  %6 = getelementptr inbounds %class.FileLine, ptr %5, i32 0, i32 3
  %7 = load i32, ptr %6, align 8
  %8 = load ptr, ptr %4, align 8
  %9 = getelementptr inbounds %class.FileLine, ptr %8, i32 0, i32 3
  %10 = load i32, ptr %9, align 8
  %11 = icmp eq i32 %7, %10
  br i1 %11, label %12, label %51

12:                                               ; preds = %2
  %13 = getelementptr inbounds %class.FileLine, ptr %5, i32 0, i32 4
  %14 = load i32, ptr %13, align 4
  %15 = load ptr, ptr %4, align 8
  %16 = getelementptr inbounds %class.FileLine, ptr %15, i32 0, i32 4
  %17 = load i32, ptr %16, align 4
  %18 = icmp eq i32 %14, %17
  br i1 %18, label %19, label %51

19:                                               ; preds = %12
  %20 = getelementptr inbounds %class.FileLine, ptr %5, i32 0, i32 5
  %21 = load i32, ptr %20, align 8
  %22 = load ptr, ptr %4, align 8
  %23 = getelementptr inbounds %class.FileLine, ptr %22, i32 0, i32 5
  %24 = load i32, ptr %23, align 8
  %25 = icmp eq i32 %21, %24
  br i1 %25, label %26, label %51

26:                                               ; preds = %19
  %27 = getelementptr inbounds %class.FileLine, ptr %5, i32 0, i32 6
  %28 = load i32, ptr %27, align 4
  %29 = load ptr, ptr %4, align 8
  %30 = getelementptr inbounds %class.FileLine, ptr %29, i32 0, i32 6
  %31 = load i32, ptr %30, align 4
  %32 = icmp eq i32 %28, %31
  br i1 %32, label %33, label %51

33:                                               ; preds = %26
  %34 = getelementptr inbounds %class.FileLine, ptr %5, i32 0, i32 1
  %35 = load i16, ptr %34, align 2
  %36 = zext i16 %35 to i32
  %37 = load ptr, ptr %4, align 8
  %38 = getelementptr inbounds %class.FileLine, ptr %37, i32 0, i32 1
  %39 = load i16, ptr %38, align 2
  %40 = zext i16 %39 to i32
  %41 = icmp eq i32 %36, %40
  br i1 %41, label %42, label %51

42:                                               ; preds = %33
  %43 = getelementptr inbounds %class.FileLine, ptr %5, i32 0, i32 0
  %44 = load i16, ptr %43, align 8
  %45 = zext i16 %44 to i32
  %46 = load ptr, ptr %4, align 8
  %47 = getelementptr inbounds %class.FileLine, ptr %46, i32 0, i32 0
  %48 = load i16, ptr %47, align 8
  %49 = zext i16 %48 to i32
  %50 = icmp eq i32 %45, %49
  br label %51

51:                                               ; preds = %42, %33, %26, %19, %12, %2
  %52 = phi i1 [ false, %33 ], [ false, %26 ], [ false, %19 ], [ false, %12 ], [ false, %2 ], [ %50, %42 ]
  ret i1 %52
}

; Function Attrs: mustprogress uwtable
define dso_local noundef ptr @_ZN8FileLine18copyOrSameFileLineEv(ptr noundef nonnull align 8 dereferenceable(40) %0) #4 align 2 personality ptr @__gxx_personality_v0 {
  %2 = alloca ptr, align 8
  %3 = alloca ptr, align 8
  %4 = alloca ptr, align 8
  %5 = alloca ptr, align 8
  %6 = alloca i32, align 4
  store ptr %0, ptr %3, align 8
  %7 = load ptr, ptr %3, align 8
  %8 = load ptr, ptr @_ZZN8FileLine18copyOrSameFileLineEvE8lastNewp, align 8
  %9 = icmp ne ptr %8, null
  br i1 %9, label %10, label %15

10:                                               ; preds = %1
  %11 = load ptr, ptr @_ZZN8FileLine18copyOrSameFileLineEvE8lastNewp, align 8
  %12 = call noundef zeroext i1 @_ZNK8FileLineeqERKS_(ptr noundef nonnull align 8 dereferenceable(40) %11, ptr noundef nonnull align 8 dereferenceable(40) %7)
  br i1 %12, label %13, label %15

13:                                               ; preds = %10
  %14 = load ptr, ptr @_ZZN8FileLine18copyOrSameFileLineEvE8lastNewp, align 8
  store ptr %14, ptr %2, align 8
  br label %24

15:                                               ; preds = %10, %1
  %16 = call noalias noundef nonnull ptr @_Znwm(i64 noundef 40) #19
  invoke void @_ZN8FileLineC2EPS_(ptr noundef nonnull align 8 dereferenceable(40) %16, ptr noundef %7)
          to label %17 unwind label %20

17:                                               ; preds = %15
  store ptr %16, ptr %4, align 8
  %18 = load ptr, ptr %4, align 8
  store ptr %18, ptr @_ZZN8FileLine18copyOrSameFileLineEvE8lastNewp, align 8
  %19 = load ptr, ptr %4, align 8
  store ptr %19, ptr %2, align 8
  br label %24

20:                                               ; preds = %15
  %21 = landingpad { ptr, i32 }
          cleanup
  %22 = extractvalue { ptr, i32 } %21, 0
  store ptr %22, ptr %5, align 8
  %23 = extractvalue { ptr, i32 } %21, 1
  store i32 %23, ptr %6, align 4
  call void @_ZdlPv(ptr noundef %16) #18
  br label %26

24:                                               ; preds = %17, %13
  %25 = load ptr, ptr %2, align 8
  ret ptr %25

26:                                               ; preds = %20
  %27 = load ptr, ptr %5, align 8
  %28 = load i32, ptr %6, align 4
  %29 = insertvalue { ptr, i32 } poison, ptr %27, 0
  %30 = insertvalue { ptr, i32 } %29, i32 %28, 1
  resume { ptr, i32 } %30
}